target datalayout = "e-m:e-p270:32:32-p271:32:32-p272:64:64-i64:64-i128:128-f80:128-n8:16:32:64-S128"
target triple = "x86_64-pc-linux-gnu"

%"class.enki::TaskScheduler" = type <{ [3 x ptr], [3 x ptr], i32, [4 x i8], ptr, ptr, %"struct.std::atomic", %"struct.std::atomic", %"struct.std::atomic", i8, %"struct.std::atomic.0", %"struct.std::atomic.0", %"struct.std::atomic.0", i32, [4 x i8], ptr, ptr, i32, i8, [3 x i8], %"struct.enki::TaskSchedulerConfig", %"struct.std::atomic.0", [4 x i8] }>
%"struct.std::atomic" = type { %"struct.std::__atomic_base" }
%"struct.std::__atomic_base" = type { i8 }
%"struct.enki::TaskSchedulerConfig" = type { i32, i32, %"struct.enki::ProfilerCallbacks", %"struct.enki::CustomAllocator" }
%"struct.enki::ProfilerCallbacks" = type { ptr, ptr, ptr, ptr, ptr, ptr, ptr, ptr }
%"struct.enki::CustomAllocator" = type { ptr, ptr, ptr }
%"struct.std::atomic.0" = type { %"struct.std::__atomic_base.1" }
%"struct.std::__atomic_base.1" = type { i32 }

; Function Attrs: inlinehint mustprogress nounwind uwtable
define linkonce_odr dso_local void @_ZN4enki15CustomAllocatorC2Ev(ptr noundef nonnull align 8 dereferenceable(24) %0) unnamed_addr #3 comdat align 2 {
  %2 = alloca ptr, align 8
  store ptr %0, ptr %2, align 8, !tbaa !209
  %3 = load ptr, ptr %2, align 8
  %4 = getelementptr inbounds nuw %"struct.enki::CustomAllocator", ptr %3, i32 0, i32 0
  store ptr @_ZN4enki16DefaultAllocFuncEmmPvPKci, ptr %4, align 8, !tbaa !211
  %5 = getelementptr inbounds nuw %"struct.enki::CustomAllocator", ptr %3, i32 0, i32 1
  store ptr @_ZN4enki15DefaultFreeFuncEPvmS0_PKci, ptr %5, align 8, !tbaa !212
  %6 = getelementptr inbounds nuw %"struct.enki::CustomAllocator", ptr %3, i32 0, i32 2
  store ptr null, ptr %6, align 8, !tbaa !213
  ret void
}

; Function Attrs: mustprogress nounwind uwtable
define dso_local noundef i32 @_ZN4enki21GetNumHardwareThreadsEv() #5 {
  %1 = call noundef i32 @_ZNSt6thread20hardware_concurrencyEv() #14
  ret i32 %1
}

; Function Attrs: mustprogress nounwind uwtable
define linkonce_odr dso_local void @_ZNSt13__atomic_baseIiEC2Ei(ptr noundef nonnull align 4 dereferenceable(4) %0, i32 noundef %1) unnamed_addr #5 comdat align 2 {
  %3 = alloca ptr, align 8
  %4 = alloca i32, align 4
  store ptr %0, ptr %3, align 8, !tbaa !68
  store i32 %1, ptr %4, align 4, !tbaa !11
  %5 = load ptr, ptr %3, align 8
  %6 = getelementptr inbounds nuw %"struct.std::__atomic_base.1", ptr %5, i32 0, i32 0
  %7 = load i32, ptr %4, align 4, !tbaa !11
  store i32 %7, ptr %6, align 4, !tbaa !208
  ret void
}

; Function Attrs: mustprogress nounwind uwtable
define linkonce_odr dso_local void @_ZNSt13__atomic_baseIbEC2Eb(ptr noundef nonnull align 1 dereferenceable(1) %0, i1 noundef zeroext %1) unnamed_addr #5 comdat align 2 {
  %3 = alloca ptr, align 8
  %4 = alloca i8, align 1
  store ptr %0, ptr %3, align 8, !tbaa !193
  %5 = zext i1 %1 to i8
  store i8 %5, ptr %4, align 1, !tbaa !61
  %6 = load ptr, ptr %3, align 8
  %7 = getelementptr inbounds nuw %"struct.std::__atomic_base", ptr %6, i32 0, i32 0
  %8 = load i8, ptr %4, align 1, !tbaa !61, !range !62, !noundef !63
  %9 = trunc i8 %8 to i1
  %10 = zext i1 %9 to i8
  store i8 %10, ptr %7, align 1, !tbaa !207
  ret void
}

; Function Attrs: inlinehint mustprogress nounwind uwtable
define linkonce_odr dso_local void @_ZN4enki19TaskSchedulerConfigC2Ev(ptr noundef nonnull align 8 dereferenceable(96) %0) unnamed_addr #3 comdat align 2 {
  %2 = alloca ptr, align 8
  store ptr %0, ptr %2, align 8, !tbaa !174
  %3 = load ptr, ptr %2, align 8
  %4 = getelementptr inbounds nuw %"struct.enki::TaskSchedulerConfig", ptr %3, i32 0, i32 0
  %5 = call noundef i32 @_ZN4enki21GetNumHardwareThreadsEv()
  %6 = sub i32 %5, 1
  store i32 %6, ptr %4, align 8, !tbaa !176
  %7 = getelementptr inbounds nuw %"struct.enki::TaskSchedulerConfig", ptr %3, i32 0, i32 1
  store i32 0, ptr %7, align 4, !tbaa !177
  %8 = getelementptr inbounds nuw %"struct.enki::TaskSchedulerConfig", ptr %3, i32 0, i32 2
  %9 = getelementptr inbounds nuw %"struct.enki::ProfilerCallbacks", ptr %8, i32 0, i32 0
  store ptr null, ptr %9, align 8, !tbaa !178
  %10 = getelementptr inbounds nuw %"struct.enki::ProfilerCallbacks", ptr %8, i32 0, i32 1
  store ptr null, ptr %10, align 8, !tbaa !179
  %11 = getelementptr inbounds nuw %"struct.enki::ProfilerCallbacks", ptr %8, i32 0, i32 2
  store ptr null, ptr %11, align 8, !tbaa !180
  %12 = getelementptr inbounds nuw %"struct.enki::ProfilerCallbacks", ptr %8, i32 0, i32 3
  store ptr null, ptr %12, align 8, !tbaa !181
  %13 = getelementptr inbounds nuw %"struct.enki::ProfilerCallbacks", ptr %8, i32 0, i32 4
  store ptr null, ptr %13, align 8, !tbaa !182
  %14 = getelementptr inbounds nuw %"struct.enki::ProfilerCallbacks", ptr %8, i32 0, i32 5
  store ptr null, ptr %14, align 8, !tbaa !183
  %15 = getelementptr inbounds nuw %"struct.enki::ProfilerCallbacks", ptr %8, i32 0, i32 6
  store ptr null, ptr %15, align 8, !tbaa !184
  %16 = getelementptr inbounds nuw %"struct.enki::ProfilerCallbacks", ptr %8, i32 0, i32 7
  store ptr null, ptr %16, align 8, !tbaa !185
  %17 = getelementptr inbounds nuw %"struct.enki::TaskSchedulerConfig", ptr %3, i32 0, i32 3
  call void @_ZN4enki15CustomAllocatorC2Ev(ptr noundef nonnull align 8 dereferenceable(24) %17) #14
  ret void
}

; Function Attrs: mustprogress nounwind uwtable
define linkonce_odr dso_local void @_ZNSt6atomicIiEC2Ei(ptr noundef nonnull align 4 dereferenceable(4) %0, i32 noundef %1) unnamed_addr #5 comdat align 2 {
  %3 = alloca ptr, align 8
  %4 = alloca i32, align 4
  store ptr %0, ptr %3, align 8, !tbaa !172
  store i32 %1, ptr %4, align 4, !tbaa !11
  %5 = load ptr, ptr %3, align 8
  %6 = load i32, ptr %4, align 4, !tbaa !11
  call void @_ZNSt13__atomic_baseIiEC2Ei(ptr noundef nonnull align 4 dereferenceable(4) %5, i32 noundef %6) #14
  ret void
}

; Function Attrs: mustprogress nounwind uwtable
define linkonce_odr dso_local void @_ZNSt6atomicIbEC2Eb(ptr noundef nonnull align 1 dereferenceable(1) %0, i1 noundef zeroext %1) unnamed_addr #5 comdat align 2 {
  %3 = alloca ptr, align 8
  %4 = alloca i8, align 1
  store ptr %0, ptr %3, align 8, !tbaa !111
  %5 = zext i1 %1 to i8
  store i8 %5, ptr %4, align 1, !tbaa !61
  %6 = load ptr, ptr %3, align 8
  %7 = getelementptr inbounds nuw %"struct.std::atomic", ptr %6, i32 0, i32 0
  %8 = load i8, ptr %4, align 1, !tbaa !61, !range !62, !noundef !63
  %9 = trunc i8 %8 to i1
  call void @_ZNSt13__atomic_baseIbEC2Eb(ptr noundef nonnull align 1 dereferenceable(1) %7, i1 noundef zeroext %9) #14
  ret void
}

; Function Attrs: mustprogress uwtable
define dso_local void @_ZN4enki13TaskSchedulerC2Ev(ptr noundef nonnull align 8 dereferenceable(220) %0) unnamed_addr #0 align 2 {
  %2 = alloca ptr, align 8
  store ptr %0, ptr %2, align 8, !tbaa !4
  %3 = load ptr, ptr %2, align 8
  %4 = getelementptr inbounds nuw %"class.enki::TaskScheduler", ptr %3, i32 0, i32 0
  call void @llvm.memset.p0.i64(ptr align 8 %4, i8 0, i64 24, i1 false)
  %5 = getelementptr inbounds nuw %"class.enki::TaskScheduler", ptr %3, i32 0, i32 1
  call void @llvm.memset.p0.i64(ptr align 8 %5, i8 0, i64 24, i1 false)
  %6 = getelementptr inbounds nuw %"class.enki::TaskScheduler", ptr %3, i32 0, i32 2
  store i32 0, ptr %6, align 8, !tbaa !91
  %7 = getelementptr inbounds nuw %"class.enki::TaskScheduler", ptr %3, i32 0, i32 4
  store ptr null, ptr %7, align 8, !tbaa !13
  %8 = getelementptr inbounds nuw %"class.enki::TaskScheduler", ptr %3, i32 0, i32 5
  store ptr null, ptr %8, align 8, !tbaa !96
  %9 = getelementptr inbounds nuw %"class.enki::TaskScheduler", ptr %3, i32 0, i32 6
  call void @_ZNSt6atomicIbEC2Eb(ptr noundef nonnull align 1 dereferenceable(1) %9, i1 noundef zeroext false) #14
  %10 = getelementptr inbounds nuw %"class.enki::TaskScheduler", ptr %3, i32 0, i32 10
  call void @_ZNSt6atomicIiEC2Ei(ptr noundef nonnull align 4 dereferenceable(4) %10, i32 noundef 0) #14
  %11 = getelementptr inbounds nuw %"class.enki::TaskScheduler", ptr %3, i32 0, i32 11
  call void @_ZNSt6atomicIiEC2Ei(ptr noundef nonnull align 4 dereferenceable(4) %11, i32 noundef 0) #14
  %12 = getelementptr inbounds nuw %"class.enki::TaskScheduler", ptr %3, i32 0, i32 12
  call void @_ZNSt6atomicIiEC2Ei(ptr noundef nonnull align 4 dereferenceable(4) %12, i32 noundef 0) #14
  %13 = getelementptr inbounds nuw %"class.enki::TaskScheduler", ptr %3, i32 0, i32 13
  store i32 0, ptr %13, align 8, !tbaa !33
  %14 = getelementptr inbounds nuw %"class.enki::TaskScheduler", ptr %3, i32 0, i32 15
  store ptr null, ptr %14, align 8, !tbaa !86
  %15 = getelementptr inbounds nuw %"class.enki::TaskScheduler", ptr %3, i32 0, i32 16
  store ptr null, ptr %15, align 8, !tbaa !95
  %16 = getelementptr inbounds nuw %"class.enki::TaskScheduler", ptr %3, i32 0, i32 17
  store i32 0, ptr %16, align 8, !tbaa !35
  %17 = getelementptr inbounds nuw %"class.enki::TaskScheduler", ptr %3, i32 0, i32 18
  store i8 0, ptr %17, align 4, !tbaa !89
  %18 = getelementptr inbounds nuw %"class.enki::TaskScheduler", ptr %3, i32 0, i32 20
  call void @_ZN4enki19TaskSchedulerConfigC2Ev(ptr noundef nonnull align 8 dereferenceable(96) %18)
  %19 = getelementptr inbounds nuw %"class.enki::TaskScheduler", ptr %3, i32 0, i32 21
  call void @_ZNSt6atomicIiEC2Ei(ptr noundef nonnull align 4 dereferenceable(4) %19, i32 noundef 0) #14
  ret void
}