; Function Attrs: mustprogress nounwind uwtable
define dso_local void @_ZN4enki13TaskSchedulerC2Ev(ptr noundef nonnull writeonly align 8 captures(none) dereferenceable(220) initializes((0, 52), (56, 73), (76, 92), (96, 117), (120, 220)) %0) unnamed_addr #2 align 2 {
  %2 = getelementptr inbounds nuw i8, ptr %0, i64 56
  %3 = getelementptr inbounds nuw i8, ptr %0, i64 76
  %4 = getelementptr inbounds nuw i8, ptr %0, i64 96
  %5 = getelementptr inbounds nuw i8, ptr %0, i64 120
  tail call void @llvm.memset.p0.i64(ptr noundef nonnull align 8 dereferenceable(52) %0, i8 0, i64 52, i1 false)
  tail call void @llvm.memset.p0.i64(ptr noundef nonnull align 8 dereferenceable(17) %2, i8 0, i64 17, i1 false)
  tail call void @llvm.memset.p0.i64(ptr noundef nonnull align 4 dereferenceable(16) %3, i8 0, i64 16, i1 false)
  tail call void @llvm.memset.p0.i64(ptr noundef nonnull align 8 dereferenceable(21) %4, i8 0, i64 21, i1 false)
  %6 = tail call noundef i32 @_ZNSt6thread20hardware_concurrencyEv() #26
  %7 = add i32 %6, -1
  store i32 %7, ptr %5, align 8, !tbaa !137
  %8 = getelementptr inbounds nuw i8, ptr %0, i64 124
  %9 = getelementptr inbounds nuw i8, ptr %0, i64 192
  tail call void @llvm.memset.p0.i64(ptr noundef nonnull align 4 dereferenceable(68) %8, i8 0, i64 68, i1 false)
  store ptr @_ZN4enki16DefaultAllocFuncEmmPvPKci, ptr %9, align 8, !tbaa !138
  %10 = getelementptr inbounds nuw i8, ptr %0, i64 200
  store ptr @_ZN4enki15DefaultFreeFuncEPvmS0_PKci, ptr %10, align 8, !tbaa !139
  %11 = getelementptr inbounds nuw i8, ptr %0, i64 208
  store ptr null, ptr %11, align 8, !tbaa !140
  %12 = getelementptr inbounds nuw i8, ptr %0, i64 216
  store i32 0, ptr %12, align 8, !tbaa !141
  ret void
}